; ModuleID = 'source-C-CXX/46/318.c'
source_filename = "source-C-CXX/46/318.c"
target datalayout = "e-m:e-p270:32:32-p271:32:32-p272:64:64-i64:64-f80:128-n8:16:32:64-S128"
target triple = "x86_64-pc-linux-gnu"

@.str = private unnamed_addr constant [3 x i8] c"%d\00", align 1
@.str.1 = private unnamed_addr constant [4 x i8] c" %d\00", align 1

; Function Attrs: nofree nounwind sspstrong uwtable
define dso_local i32 @main() local_unnamed_addr #0 {
  %1 = alloca [100 x i32], align 16
  %2 = alloca [100 x i32], align 16
  %3 = alloca i32, align 4
  %4 = bitcast [100 x i32]* %1 to i8*
  call void @llvm.lifetime.start.p0i8(i64 400, i8* nonnull %4) #4
  %5 = bitcast [100 x i32]* %2 to i8*
  call void @llvm.lifetime.start.p0i8(i64 400, i8* nonnull %5) #4
  %6 = bitcast i32* %3 to i8*
  call void @llvm.lifetime.start.p0i8(i64 4, i8* nonnull %6) #4
  %7 = call i32 (i8*, ...) @__isoc99_scanf(i8* getelementptr inbounds ([3 x i8], [3 x i8]* @.str, i64 0, i64 0), i32* nonnull %3)
  %8 = load i32, i32* %3, align 4, !tbaa !5
  %9 = icmp sgt i32 %8, 0
  br i1 %9, label %18, label %42

10:                                               ; preds = %18
  %11 = icmp sgt i32 %24, 0
  br i1 %11, label %12, label %42

12:                                               ; preds = %10
  %13 = getelementptr inbounds [100 x i32], [100 x i32]* %2, i64 0, i64 0
  %14 = load i32, i32* %13, align 16, !tbaa !5
  %15 = call i32 (i8*, ...) @printf(i8* nonnull dereferenceable(1) getelementptr inbounds ([3 x i8], [3 x i8]* @.str, i64 0, i64 0), i32 %14)
  %16 = load i32, i32* %3, align 4, !tbaa !5
  %17 = icmp sgt i32 %16, 1
  br i1 %17, label %33, label %42

18:                                               ; preds = %0, %18
  %19 = phi i64 [ %29, %18 ], [ 0, %0 ]
  %20 = phi i32 [ %30, %18 ], [ 0, %0 ]
  %21 = getelementptr inbounds [100 x i32], [100 x i32]* %1, i64 0, i64 %19
  %22 = call i32 (i8*, ...) @__isoc99_scanf(i8* getelementptr inbounds ([3 x i8], [3 x i8]* @.str, i64 0, i64 0), i32* nonnull %21)
  %23 = load i32, i32* %21, align 4, !tbaa !5
  %24 = load i32, i32* %3, align 4, !tbaa !5
  %25 = xor i32 %20, -1
  %26 = add i32 %24, %25
  %27 = sext i32 %26 to i64
  %28 = getelementptr inbounds [100 x i32], [100 x i32]* %2, i64 0, i64 %27
  store i32 %23, i32* %28, align 4, !tbaa !5
  %29 = add nuw nsw i64 %19, 1
  %30 = add nuw nsw i32 %20, 1
  %31 = sext i32 %24 to i64
  %32 = icmp slt i64 %29, %31
  br i1 %32, label %18, label %10, !llvm.loop !9

33:                                               ; preds = %12, %33
  %34 = phi i64 [ %39, %33 ], [ 1, %12 ]
  %35 = getelementptr inbounds [100 x i32], [100 x i32]* %2, i64 0, i64 %34
  %36 = load i32, i32* %35, align 4, !tbaa !5
  %37 = call i32 (i8*, ...) @printf(i8* nonnull dereferenceable(1) getelementptr inbounds ([4 x i8], [4 x i8]* @.str.1, i64 0, i64 0), i32 %36)
  %38 = load i32, i32* %3, align 4, !tbaa !5
  %39 = add nuw nsw i64 %34, 1
  %40 = sext i32 %38 to i64
  %41 = icmp slt i64 %39, %40
  br i1 %41, label %33, label %42, !llvm.loop !11

42:                                               ; preds = %33, %0, %12, %10
  %43 = call i32 @putchar(i32 10)
  call void @llvm.lifetime.end.p0i8(i64 4, i8* nonnull %6) #4
  call void @llvm.lifetime.end.p0i8(i64 400, i8* nonnull %5) #4
  call void @llvm.lifetime.end.p0i8(i64 400, i8* nonnull %4) #4
  ret i32 0
}

; Function Attrs: argmemonly mustprogress nofree nosync nounwind willreturn
declare void @llvm.lifetime.start.p0i8(i64 immarg, i8* nocapture) #1

; Function Attrs: nofree nounwind
declare noundef i32 @__isoc99_scanf(i8* nocapture noundef readonly, ...) local_unnamed_addr #2

; Function Attrs: nofree nounwind
declare noundef i32 @printf(i8* nocapture noundef readonly, ...) local_unnamed_addr #2

; Function Attrs: argmemonly mustprogress nofree nosync nounwind willreturn
declare void @llvm.lifetime.end.p0i8(i64 immarg, i8* nocapture) #1

; Function Attrs: nofree nounwind
declare noundef i32 @putchar(i32 noundef) local_unnamed_addr #3


!llvm.module.flags = !{!0, !1, !2, !3}
!llvm.ident = !{!4}

!0 = !{i32 1, !"wchar_size", i32 4}
!1 = !{i32 7, !"PIC Level", i32 2}
!2 = !{i32 7, !"PIE Level", i32 2}
!3 = !{i32 7, !"uwtable", i32 1}
!4 = !{!"clang version 13.0.0"}
!5 = !{!6, !6, i64 0}
!6 = !{!"int", !7, i64 0}
!7 = !{!"omnipotent char", !8, i64 0}
!8 = !{!"Simple C/C++ TBAA"}
!9 = distinct !{!9, !10}
!10 = !{!"llvm.loop.mustprogress"}
!11 = distinct !{!11, !10, !12}
!12 = !{!"llvm.loop.peeled.count", i32 1}
